; Function Attrs: mustprogress nofree norecurse nosync nounwind willreturn memory(read, inaccessiblemem: none) uwtable
define range(i32 0, 2) i32 @Fra_LcrNodesAreEqual(ptr noundef readonly captures(none) %0, ptr noundef readonly captures(none) %1) #8 {
  %3 = getelementptr inbounds nuw i8, ptr %0, i64 40
  %4 = load ptr, ptr %3, align 8
  %5 = getelementptr inbounds nuw i8, ptr %4, i64 64
  %6 = load ptr, ptr %5, align 8
  %7 = getelementptr inbounds nuw i8, ptr %6, i64 24
  %8 = load ptr, ptr %7, align 8
  %9 = load ptr, ptr %0, align 8
  %10 = ptrtoint ptr %9 to i64
  %11 = getelementptr inbounds i32, ptr %8, i64 %10
  %12 = load i32, ptr %11, align 4
  %13 = load ptr, ptr %1, align 8
  %14 = ptrtoint ptr %13 to i64
  %15 = getelementptr inbounds i32, ptr %8, i64 %14
  %16 = load i32, ptr %15, align 4
  %.not = icmp eq i32 %12, %16
  br i1 %.not, label %17, label %45

17:                                               ; preds = %2
  %18 = getelementptr inbounds nuw i8, ptr %6, i64 40
  %19 = load ptr, ptr %18, align 8
  %20 = getelementptr i8, ptr %19, i64 8
  %.val = load ptr, ptr %20, align 8
  %21 = sext i32 %12 to i64
  %22 = getelementptr inbounds ptr, ptr %.val, i64 %21
  %23 = load ptr, ptr %22, align 8
  %24 = getelementptr inbounds nuw i8, ptr %6, i64 32
  %25 = load ptr, ptr %24, align 8
  %26 = getelementptr inbounds i32, ptr %25, i64 %10
  %27 = load i32, ptr %26, align 4
  %28 = getelementptr i8, ptr %23, i64 24
  %.val19 = load ptr, ptr %28, align 8
  %29 = getelementptr i8, ptr %.val19, i64 8
  %.val19.val = load ptr, ptr %29, align 8
  %30 = sext i32 %27 to i64
  %31 = getelementptr inbounds ptr, ptr %.val19.val, i64 %30
  %32 = load ptr, ptr %31, align 8
  %33 = getelementptr inbounds i32, ptr %25, i64 %14
  %34 = load i32, ptr %33, align 4
  %35 = sext i32 %34 to i64
  %36 = getelementptr inbounds ptr, ptr %.val19.val, i64 %35
  %37 = load ptr, ptr %36, align 8
  %38 = getelementptr i8, ptr %32, i64 8
  %.val21 = load ptr, ptr %38, align 8
  %39 = ptrtoint ptr %.val21 to i64
  %40 = getelementptr i8, ptr %37, i64 8
  %.val22 = load ptr, ptr %40, align 8
  %41 = ptrtoint ptr %.val22 to i64
  %42 = xor i64 %41, %39
  %43 = icmp ult i64 %42, 2
  %44 = zext i1 %43 to i32
  br label %45

45:                                               ; preds = %2, %17
  %.0 = phi i32 [ %44, %17 ], [ 1, %2 ]
  ret i32 %.0
}